(dp0
S'clustering'
p1
(dp2
I0
F0.097987751531058612
sI100000511275520
F0.93333333333333335
sI1475919878
F0.67619047619047623
sI1500674056
F0.77777777777777779
sI1341281293
F0.82222222222222219
sI100000916441102
F0.63043478260869568
sI100000559244304
F0.41904761904761906
sI1196611093
F0.7142857142857143
sI100001240417302
F0.61538461538461542
sI1812844057
F0.8571428571428571
sI100000242988059
F0.76023391812865493
sI1283026463
F0.90476190476190477
sI1251644963
F0.90000000000000002
sI1663011364
F0.86928104575163401
sI1032966662
F0.61904761904761907
sI100000796855344
F1.0
sI1621747250
F0.90000000000000002
sI1423307828
F0.94999999999999996
sI100000251476023
F0.80476190476190479
sI100001151564860
F0.35897435897435898
sI670774349
F0.75
sI1527991374
F0.83040935672514615
sI100000269880914
F0.72631578947368425
sI100000195247193
F0.87619047619047619
sI1535572062
F0.0
sI100000978972259
F0.21863799283154123
sI100000577456753
F1.0
sI100000761276531
F0.8571428571428571
sI100000359074423
F0.84795321637426901
sI1145690747
F0.90849673202614378
sI100000786148478
F0.61904761904761907
sI574613122
F1.0
sI100000177233035
F0.92156862745098034
sI100000626047119
F0.47619047619047616
sI1561663125
F0.80116959064327486
sI100000237510295
F0.65367965367965364
sI100000950045344
F0.97435897435897434
sI1458353825
F0.75816993464052285
sI100000106189989
F0.44696969696969696
sI100000650966699
F1.0
sI100000500574893
F0.8666666666666667
sI100001401545390
F0.55000000000000004
sI1427656367
F0.63203463203463206
sI1563941552
F0.81818181818181823
sI1555223217
F0.6785714285714286
sI100000204317377
F0.69999999999999996
sI100000072241347
F0.34761904761904761
sI100000665913030
F0.94999999999999996
sI1218227920
F0.42857142857142855
sI100000555727570
F0.77777777777777779
sI1665207509
F0.33763440860215055
sI100000822290649
F0.59999999999999998
sI1334643932
F0.8928571428571429
sI711597283
F0.80000000000000004
sI100000243669458
F0.66007905138339917
sI730325234
F0.94999999999999996
sI652673267
F0.90849673202614378
sI1298798324
F0.52380952380952384
sI543900798
F0.77894736842105261
sI100001159501558
F1.0
sI100000875089655
F0.83040935672514615
sI1605019392
F0.80000000000000004
sI100000072977670
F0.7351778656126482
sI100000844134666
F0.90476190476190477
sI1541512459
F0.90000000000000002
sI1142665486
F0.80526315789473679
sI704756495
F0.0
sI1374489875
F0.63636363636363635
sI1438635288
F0.72631578947368425
sI1682210082
F0.65714285714285714
sI100000159406372
F0.61538461538461542
sI1255764264
F0.56615384615384612
sI1579834588
F0.6071428571428571
sI100000223015724
F0.7351778656126482
sI1589262813
F0.60233918128654973
sI1674574646
F0.94505494505494503
sI1341833543
F0.6785714285714286
sI100000070382409
F1.0
sI1779769892
F0.81818181818181823
sI100000586940753
F1.0
sI100000092777302
F0.67500000000000004
sI1361434456
F0.50142450142450146
sI1796057946
F0.91025641025641024
sI100000534391132
F0.94444444444444442
sI1083970911
F0.69999999999999996
sI1054225249
F0.4213709677419355
sI100000675199851
F0.80116959064327486
sI100000548456815
F0.59999999999999998
sI806459762
F0.58333333333333337
sI766967667
F0.68831168831168832
sI1810313588
F0.9642857142857143
sI100000522020215
F1.0
sI100000050158456
F0.66666666666666663
sI1069035901
F0.0
sI1476711297
F0.52536231884057971
sI100000416738692
F0.65333333333333332
sI100000395817861
F0.86111111111111116
sI100000036955024
F0.90000000000000002
sI100000717948818
F0.80952380952380953
sI1040476565
F1.0
sI1393333145
F0.82051282051282048
sI100000077028249
F0.94871794871794868
sI100000568166299
F0.90000000000000002
sI100000943723935
F1.0
sI1198502305
F1.0
sI1177760162
F0.93406593406593408
sI1547725220
F0.65000000000000002
sI1162622890
F0.5163398692810458
sI906415022
F0.76842105263157889
sI1685006257
F0.63809523809523805
sI100000575211956
F1.0
sI1223122879
F0.69999999999999996
sI100000316434882
F0.77777777777777779
sI100000081887173
F0.72527472527472525
sI100001392610551
F1.0
sI1545300898
F0.83333333333333337
sI682314702
F0.92647058823529416
sI100000115366354
F0.85833333333333328
sI100001045601749
F0.89542483660130723
sI100000028449750
F0.94852941176470584
sI100000648559579
F0.90000000000000002
sI1130027485
F0.61538461538461542
sI100000774974437
F0.94505494505494503
sI100000865749997
F0.86111111111111116
sI1456110848
F0.5688405797101449
sI100000241461744
F1.0
sI100000570911217
F0.8666666666666667
sI1436550136
F1.0
ssS'eigenvector'
p3
(dp4
I0
F0.39372938154780635
sI100000511275520
F0.042539783149436919
sI1032966662
F0.064361862869534978
sI1500674056
F0.052663942676708903
sI1341281293
F0.056638591237538463
sI100000916441102
F0.12615040312526735
sI100000559244304
F0.084750981529050598
sI1196611093
F0.049322906037411123
sI100001240417302
F0.059871465712226797
sI1812844057
F0.05868103138862444
sI100000242988059
F0.11458553332481294
sI1283026463
F0.040096842713290268
sI1251644963
F0.041116589855890326
sI1663011364
F0.1094266227160163
sI1475919878
F0.11956867277695883
sI100000796855344
F0.036048096606443258
sI1621747250
F0.02083147467375647
sI1423307828
F0.08595508884650789
sI100000251476023
F0.11638368255403815
sI100001151564860
F0.059373971582617945
sI670774349
F0.052127441956072711
sI1527991374
F0.11235751414736143
sI100000269880914
F0.11089810278107953
sI100000195247193
F0.087834106029962791
sI1535572062
F0.017253608100365973
sI100000978972259
F0.24581108341790681
sI100000577456753
F0.022751744168642458
sI100000761276531
F0.044269976665539952
sI100000359074423
F0.096045947026452819
sI1145690747
F0.092487966385884232
sI543900798
F0.097547457793788914
sI574613122
F0.04863153487468172
sI100000177233035
F0.10235248400407765
sI100000626047119
F0.036873058446126823
sI1561663125
F0.11003813265200243
sI100000237510295
F0.12252800607616493
sI100000950045344
F0.078784339021882421
sI1458353825
F0.090137014035848353
sI100000106189989
F0.1783267784149449
sI100000650966699
F0.021856771856487392
sI100000500574893
F0.035765754661651356
sI100001401545390
F0.093552131650073353
sI1427656367
F0.11549973874493698
sI1563941552
F0.05792561530773898
sI1555223217
F0.048793380079295477
sI100000204317377
F0.031412285919150518
sI100000072241347
F0.1601781778034885
sI100000665913030
F0.09422012472767291
sI1218227920
F0.033268616892361928
sI100000555727570
F0.037299479861518679
sI1665207509
F0.13057776356506712
sI100000822290649
F0.027646175255077891
sI1579834588
F0.05408254901688505
sI711597283
F0.030932108557659235
sI100000115366354
F0.089345196083603029
sI730325234
F0.08636944156806331
sI652673267
F0.092487966385884218
sI1298798324
F0.042133353124005755
sI100000786148478
F0.06389890363828217
sI100001159501558
F0.018044328597904582
sI100000875089655
F0.10801585955304387
sI1605019392
F0.039961125973657148
sI100000072977670
F0.12192562204159833
sI100000844134666
F0.03310277331313654
sI1541512459
F0.02083147467375647
sI1142665486
F0.11628496822775961
sI704756495
F0.017253608100365973
sI1374489875
F0.05003675427660987
sI1438635288
F0.09662396945842798
sI1682210082
F0.071170104423480915
sI100000159406372
F0.055377734698427342
sI1255764264
F0.1320973235595829
sI1334643932
F0.054224803094815387
sI100000223015724
F0.12173854063626864
sI1130027485
F0.071768866786742075
sI1674574646
F0.078694519243935696
sI1341833543
F0.031968725903376426
sI100000070382409
F0.021502072744476877
sI1779769892
F0.050401631591812525
sI100000586940753
F0.022751744168642458
sI100000092777302
F0.10167664155063039
sI1361434456
F0.11725961445597781
sI1796057946
F0.078924076304076288
sI100000534391132
F0.064728038567500604
sI1083970911
F0.023314647953566955
sI1054225249
F0.14148214480971452
sI100000675199851
F0.094643471107572402
sI100000548456815
F0.043842123088264504
sI806459762
F0.12588988037445406
sI766967667
F0.11560813100968532
sI1810313588
F0.051523633204803271
sI100000522020215
F0.019992176393898258
sI100000050158456
F0.027417657863433642
sI1069035901
F0.017253608100365973
sI1476711297
F0.10016669985520961
sI100000416738692
F0.1266946015833299
sI100000395817861
F0.046506024809490364
sI100000036955024
F0.02083147467375647
sI100000717948818
F0.025244329456177085
sI1040476565
F0.02427266852053803
sI100000077028249
F0.067046906124738584
sI1393333145
F0.082950074803683951
sI100000568166299
F0.022835551760336754
sI100000943723935
F0.022751744168642458
sI1198502305
F0.019992176393898258
sI1177760162
F0.076916724929610977
sI1547725220
F0.12529743478141009
sI1162622890
F0.080442843555862342
sI906415022
F0.09694863698945673
sI1685006257
F0.066686184424022563
sI100000575211956
F0.022751744168642458
sI1223122879
F0.037326050538118771
sI100000316434882
F0.10598209763333789
sI100000081887173
F0.065009755307216033
sI100001392610551
F0.018044328597904582
sI1545300898
F0.061137941078392363
sI682314702
F0.089184209776528092
sI100000243669458
F0.11785114421288582
sI100001045601749
F0.10588342092047842
sI100000028449750
F0.098665164000893896
sI100000648559579
F0.022835551760336754
sI1589262813
F0.10222835048095189
sI100000774974437
F0.092393098096954548
sI100000865749997
F0.050451910595548821
sI1456110848
F0.10498849022487641
sI100000241461744
F0.029927683434002615
sI100000570911217
F0.037702063141174504
sI1436550136
F0.027004654477261067
ssS'closeness'
p5
(dp6
I0
F1.0
sI100000511275520
F0.51209677419354838
sI1475919878
F0.54506437768240346
sI1500674056
F0.52049180327868849
sI1341281293
F0.52049180327868849
sI100000916441102
F0.55217391304347829
sI100000559244304
F0.53138075313807531
sI1196611093
F0.51626016260162599
sI100001240417302
F0.52916666666666667
sI1812844057
F0.51626016260162599
sI100000242988059
F0.54042553191489362
sI1283026463
F0.51417004048582993
sI1251644963
F0.51004016064257029
sI1663011364
F0.53813559322033899
sI1032966662
F0.53138075313807531
sI100000796855344
F0.51004016064257029
sI1621747250
F0.51004016064257029
sI1423307828
F0.53361344537815125
sI100000251476023
F0.54506437768240346
sI100001151564860
F0.52697095435684649
sI670774349
F0.51626016260162599
sI1527991374
F0.54042553191489362
sI100000269880914
F0.54273504273504269
sI100000195247193
F0.53138075313807531
sI1535572062
F0.50197628458498023
sI100000978972259
F0.66492146596858637
sI100000577456753
F0.51209677419354838
sI100000761276531
F0.51417004048582993
sI100000359074423
F0.54042553191489362
sI1145690747
F0.53813559322033899
sI100000786148478
F0.53138075313807531
sI574613122
F0.51417004048582993
sI100000177233035
F0.53813559322033899
sI100000626047119
F0.51417004048582993
sI1561663125
F0.54042553191489362
sI100000237510295
F0.54741379310344829
sI100000950045344
F0.52697095435684649
sI1458353825
F0.53813559322033899
sI100000106189989
F0.57466063348416285
sI100000650966699
F0.50800000000000001
sI100000500574893
F0.51209677419354838
sI100001401545390
F0.53361344537815125
sI1427656367
F0.54741379310344829
sI1563941552
F0.52263374485596703
sI1555223217
F0.51626016260162599
sI100000204317377
F0.51004016064257029
sI100000072241347
F0.58256880733944949
sI100000665913030
F0.53361344537815125
sI1218227920
F0.51417004048582993
sI100000555727570
F0.51836734693877551
sI1665207509
F0.56950672645739908
sI100000822290649
F0.51209677419354838
sI1334643932
F0.51626016260162599
sI711597283
F0.51004016064257029
sI100000243669458
F0.54978354978354982
sI730325234
F0.53361344537815125
sI652673267
F0.53813559322033899
sI1298798324
F0.51417004048582993
sI543900798
F0.54273504273504269
sI100001159501558
F0.50396825396825395
sI100000875089655
F0.54042553191489362
sI1605019392
F0.51004016064257029
sI100000072977670
F0.54978354978354982
sI100000844134666
F0.51417004048582993
sI1541512459
F0.51004016064257029
sI1142665486
F0.54273504273504269
sI704756495
F0.50197628458498023
sI1374489875
F0.52263374485596703
sI1438635288
F0.54273504273504269
sI1682210082
F0.53138075313807531
sI100000159406372
F0.52697095435684649
sI1255764264
F0.55701754385964908
sI1579834588
F0.51626016260162599
sI100000223015724
F0.54978354978354982
sI1589262813
F0.54042553191489362
sI1674574646
F0.52916666666666667
sI1341833543
F0.51626016260162599
sI100000070382409
F0.50396825396825395
sI1779769892
F0.52263374485596703
sI100000586940753
F0.51209677419354838
sI100000092777302
F0.53361344537815125
sI1361434456
F0.55947136563876654
sI1796057946
F0.52697095435684649
sI100000534391132
F0.51836734693877551
sI1083970911
F0.51004016064257029
sI1054225249
F0.57207207207207211
sI100000675199851
F0.54042553191489362
sI100000548456815
F0.51209677419354838
sI806459762
F0.55217391304347829
sI766967667
F0.54741379310344829
sI1810313588
F0.51626016260162599
sI100000522020215
F0.50800000000000001
sI100000050158456
F0.50597609561752988
sI1069035901
F0.50197628458498023
sI1476711297
F0.55217391304347829
sI100000416738692
F0.55458515283842791
sI100000395817861
F0.51836734693877551
sI100000036955024
F0.51004016064257029
sI100000717948818
F0.51417004048582993
sI1040476565
F0.50396825396825395
sI1393333145
F0.52697095435684649
sI100000077028249
F0.52697095435684649
sI100000568166299
F0.51004016064257029
sI100000943723935
F0.51209677419354838
sI1198502305
F0.50800000000000001
sI1177760162
F0.52916666666666667
sI1547725220
F0.55458515283842791
sI1162622890
F0.53813559322033899
sI906415022
F0.54273504273504269
sI1685006257
F0.53138075313807531
sI100000575211956
F0.51209677419354838
sI1223122879
F0.51004016064257029
sI100000316434882
F0.53813559322033899
sI100000081887173
F0.52916666666666667
sI100001392610551
F0.50396825396825395
sI1545300898
F0.51836734693877551
sI682314702
F0.53586497890295359
sI100000115366354
F0.53361344537815125
sI100001045601749
F0.53813559322033899
sI100000028449750
F0.53586497890295359
sI100000648559579
F0.51004016064257029
sI1130027485
F0.52916666666666667
sI100000774974437
F0.52916666666666667
sI100000865749997
F0.51836734693877551
sI1456110848
F0.55217391304347829
sI100000241461744
F0.50597609561752988
sI100000570911217
F0.51209677419354838
sI1436550136
F0.50800000000000001
ssS'betweeness'
p7
(dp8
I0
F0.6879498130523739
sI100000511275520
F2.0830729492146813e-05
sI1475919878
F0.0021963219188566013
sI1500674056
F0.00028746406699162603
sI1341281293
F0.00029371328583927008
sI100000916441102
F0.0021526238624101396
sI100000559244304
F0.0026550252646990553
sI1196611093
F0.000257408300152957
sI100001240417302
F0.00099864676112498049
sI1812844057
F0.00012498437695288088
sI100000242988059
F0.00073056031998664178
sI1283026463
F2.9510200113874649e-05
sI1251644963
F3.1246094238220219e-05
sI1663011364
F0.00021139826164198115
sI1032966662
F0.0010260738882896406
sI100000796855344
F0.0
sI1621747250
F3.1246094238220219e-05
sI1423307828
F5.5368310347467359e-05
sI100000251476023
F0.0005512962159006403
sI100001151564860
F0.002790276215473066
sI670774349
F0.00016942326653612743
sI1527991374
F0.00036887177869555064
sI100000269880914
F0.0012579745519378063
sI100000195247193
F0.00023955338915968829
sI1535572062
F0.0
sI100000978972259
F0.076208749778689522
sI100000577456753
F0.0
sI100000761276531
F5.832604257801108e-05
sI100000359074423
F0.00035634633910952307
sI1145690747
F0.00013196962429411313
sI100000786148478
F0.00098904974646609866
sI574613122
F0.0
sI100000177233035
F0.00011655167729408447
sI100000626047119
F0.00042494688163979502
sI1561663125
F0.00048949613066598429
sI100000237510295
F0.0025522298113224247
sI100000950045344
F1.6143815356413779e-05
sI1458353825
F0.00076150432355906656
sI100000106189989
F0.012689851497500539
sI100000650966699
F0.0
sI100000500574893
F4.2851786383844876e-05
sI100001401545390
F0.001896134320206311
sI1427656367
F0.002314809092086932
sI1563941552
F0.0002343457067866517
sI1555223217
F0.00018331041953089194
sI100000204317377
F0.0001562304711911011
sI100000072241347
F0.019934043410796312
sI100000665913030
F5.6517660567154376e-05
sI1218227920
F0.00062283881181518974
sI100000555727570
F0.00015667684396593277
sI1665207509
F0.012091392200128608
sI100000822290649
F0.00023955338915968832
sI1334643932
F7.4990626171728521e-05
sI711597283
F8.3322917968587252e-05
sI100000243669458
F0.0019667220876444722
sI730325234
F5.2933549757476179e-05
sI652673267
F0.00013196962429411313
sI1298798324
F0.00042494688163979496
sI543900798
F0.00088128072231162275
sI100001159501558
F0.0
sI100000875089655
F0.00048400560680275716
sI1605019392
F4.6869141357330329e-05
sI100000072977670
F0.0010256507022536267
sI100000844134666
F2.9510200113874649e-05
sI1541512459
F3.1246094238220219e-05
sI1142665486
F0.00046533477354624705
sI704756495
F0.0
sI1374489875
F0.00066008614002614752
sI1438635288
F0.0012703401529798228
sI1682210082
F0.00092220615280232815
sI100000159406372
F0.0010203585662903246
sI1255764264
F0.0042159990088374037
sI1579834588
F0.00031384965768167865
sI100000223015724
F0.0010128546827084509
sI1589262813
F0.0014547479489361755
sI1674574646
F4.3319366914946881e-05
sI1341833543
F0.00045827604882722983
sI100000070382409
F0.0
sI1779769892
F0.00018916286257868558
sI100000586940753
F0.0
sI100000092777302
F0.0012821809972166176
sI1361434456
F0.0069436181682261209
sI1796057946
F0.00011546175775647088
sI100000534391132
F1.5275868294240997e-05
sI1083970911
F0.00018747656542932132
sI1054225249
F0.010053237982559316
sI100000675199851
F0.00061248800882449615
sI100000548456815
F0.00018122734658167726
sI806459762
F0.003397408740490855
sI766967667
F0.0021970955276167125
sI1810313588
F1.2498437695288089e-05
sI100000522020215
F0.0
sI100000050158456
F2.4996875390576178e-05
sI1069035901
F0.0
sI1476711297
F0.004568252159178293
sI100000416738692
F0.0020106466253822829
sI100000395817861
F0.00014998125234345704
sI100000036955024
F3.1246094238220219e-05
sI100000717948818
F0.0001666458359371745
sI1040476565
F0.0
sI1393333145
F0.00022898611200073511
sI100000077028249
F3.5967344741247996e-05
sI100000568166299
F3.1246094238220219e-05
sI100000943723935
F0.0
sI1198502305
F0.0
sI1177760162
F5.8059675607482117e-05
sI1547725220
F0.0021817561890677749
sI1162622890
F0.0025511691990882093
sI906415022
F0.0014812057316854511
sI1685006257
F0.0010282940822873331
sI100000575211956
F0.0
sI1223122879
F0.00014581510644502766
sI100000316434882
F0.00065968936422629721
sI100000081887173
F0.00055870992316436625
sI100001392610551
F0.0
sI1545300898
F0.00013102757759675643
sI682314702
F9.3138314371689598e-05
sI100000115366354
F0.00059908376837510707
sI100001045601749
F0.00016583078075391535
sI100000028449750
F6.4329184126709417e-05
sI100000648559579
F3.1246094238220219e-05
sI1130027485
F0.0013270662595746957
sI100000774974437
F4.3546144033583095e-05
sI100000865749997
F0.00014998125234345704
sI1456110848
F0.0040370509197016173
sI100000241461744
F0.0
sI100000570911217
F4.5827604882722991e-05
sI1436550136
F0.0
ssS'degree'
p9
(dp10
I0
F1.0
sI100000511275520
F0.047244094488188976
sI1475919878
F0.1653543307086614
sI1500674056
F0.07874015748031496
sI1341281293
F0.07874015748031496
sI100000916441102
F0.1889763779527559
sI100000559244304
F0.11811023622047244
sI1196611093
F0.062992125984251968
sI100001240417302
F0.11023622047244094
sI1812844057
F0.062992125984251968
sI100000242988059
F0.14960629921259844
sI1283026463
F0.055118110236220472
sI1251644963
F0.03937007874015748
sI1663011364
F0.14173228346456693
sI1032966662
F0.11811023622047244
sI100000796855344
F0.03937007874015748
sI1621747250
F0.03937007874015748
sI1423307828
F0.12598425196850394
sI100000251476023
F0.1653543307086614
sI100001151564860
F0.10236220472440945
sI670774349
F0.062992125984251968
sI1527991374
F0.14960629921259844
sI100000269880914
F0.15748031496062992
sI100000195247193
F0.11811023622047244
sI1535572062
F0.007874015748031496
sI100000978972259
F0.49606299212598426
sI100000577456753
F0.047244094488188976
sI100000761276531
F0.055118110236220472
sI100000359074423
F0.14960629921259844
sI1145690747
F0.14173228346456693
sI100000786148478
F0.11811023622047244
sI574613122
F0.055118110236220472
sI100000177233035
F0.14173228346456693
sI100000626047119
F0.055118110236220472
sI1561663125
F0.14960629921259844
sI100000237510295
F0.17322834645669291
sI100000950045344
F0.10236220472440945
sI1458353825
F0.14173228346456693
sI100000106189989
F0.25984251968503935
sI100000650966699
F0.031496062992125984
sI100000500574893
F0.047244094488188976
sI100001401545390
F0.12598425196850394
sI1427656367
F0.17322834645669291
sI1563941552
F0.086614173228346455
sI1555223217
F0.062992125984251968
sI100000204317377
F0.03937007874015748
sI100000072241347
F0.28346456692913385
sI100000665913030
F0.12598425196850394
sI1218227920
F0.055118110236220472
sI100000555727570
F0.070866141732283464
sI1665207509
F0.24409448818897639
sI100000822290649
F0.047244094488188976
sI1334643932
F0.062992125984251968
sI711597283
F0.03937007874015748
sI100000243669458
F0.18110236220472442
sI730325234
F0.12598425196850394
sI652673267
F0.14173228346456693
sI1298798324
F0.055118110236220472
sI543900798
F0.15748031496062992
sI100001159501558
F0.015748031496062992
sI100000875089655
F0.14960629921259844
sI1605019392
F0.03937007874015748
sI100000072977670
F0.18110236220472442
sI100000844134666
F0.055118110236220472
sI1541512459
F0.03937007874015748
sI1142665486
F0.15748031496062992
sI704756495
F0.007874015748031496
sI1374489875
F0.086614173228346455
sI1438635288
F0.15748031496062992
sI1682210082
F0.11811023622047244
sI100000159406372
F0.10236220472440945
sI1255764264
F0.20472440944881889
sI1579834588
F0.062992125984251968
sI100000223015724
F0.18110236220472442
sI1589262813
F0.14960629921259844
sI1674574646
F0.11023622047244094
sI1341833543
F0.062992125984251968
sI100000070382409
F0.015748031496062992
sI1779769892
F0.086614173228346455
sI100000586940753
F0.047244094488188976
sI100000092777302
F0.12598425196850394
sI1361434456
F0.2125984251968504
sI1796057946
F0.10236220472440945
sI100000534391132
F0.070866141732283464
sI1083970911
F0.03937007874015748
sI1054225249
F0.25196850393700787
sI100000675199851
F0.14960629921259844
sI100000548456815
F0.047244094488188976
sI806459762
F0.1889763779527559
sI766967667
F0.17322834645669291
sI1810313588
F0.062992125984251968
sI100000522020215
F0.031496062992125984
sI100000050158456
F0.023622047244094488
sI1069035901
F0.007874015748031496
sI1476711297
F0.1889763779527559
sI100000416738692
F0.19685039370078738
sI100000395817861
F0.070866141732283464
sI100000036955024
F0.03937007874015748
sI100000717948818
F0.055118110236220472
sI1040476565
F0.015748031496062992
sI1393333145
F0.10236220472440945
sI100000077028249
F0.10236220472440945
sI100000568166299
F0.03937007874015748
sI100000943723935
F0.047244094488188976
sI1198502305
F0.031496062992125984
sI1177760162
F0.11023622047244094
sI1547725220
F0.19685039370078738
sI1162622890
F0.14173228346456693
sI906415022
F0.15748031496062992
sI1685006257
F0.11811023622047244
sI100000575211956
F0.047244094488188976
sI1223122879
F0.03937007874015748
sI100000316434882
F0.14173228346456693
sI100000081887173
F0.11023622047244094
sI100001392610551
F0.015748031496062992
sI1545300898
F0.070866141732283464
sI682314702
F0.13385826771653542
sI100000115366354
F0.12598425196850394
sI100001045601749
F0.14173228346456693
sI100000028449750
F0.13385826771653542
sI100000648559579
F0.03937007874015748
sI1130027485
F0.11023622047244094
sI100000774974437
F0.11023622047244094
sI100000865749997
F0.070866141732283464
sI1456110848
F0.1889763779527559
sI100000241461744
F0.023622047244094488
sI100000570911217
F0.047244094488188976
sI1436550136
F0.031496062992125984
ss.